target datalayout = "e-m:e-p270:32:32-p271:32:32-p272:64:64-i64:64-i128:128-f80:128-n8:16:32:64-S128"
target triple = "x86_64-pc-linux-gnu"

%struct.DdManager = type { %struct.DdNode, ptr, ptr, ptr, ptr, ptr, ptr, ptr, i32, i32, double, double, double, i32, i32, i32, i32, i32, i32, ptr, ptr, %struct.DdSubtable, i32, i32, i32, i32, i32, i32, i32, double, i32, i32, i32, ptr, i64, double, i32, ptr, ptr, ptr, ptr, ptr, ptr, ptr, i32, ptr, ptr, ptr, ptr, ptr, ptr, i32, i32, i32, double, i32, i32, i32, i32, double, double, i32, i32, i32, i32, i32, i32, i32, i32, i32, ptr, ptr, i32, i32, i32, i32, i32, i32, ptr, ptr, ptr, ptr, ptr, ptr, ptr, ptr, i32, i64, i64, i64, i32, i64, i64, double, double, double, double, double, double, i32, ptr, ptr, i64 }
%struct.DdNode = type { i32, i32, ptr, %union.anon, i64 }
%union.anon = type { %struct.DdChildren }
%struct.DdChildren = type { ptr, ptr }
%struct.DdSubtable = type { ptr, i32, i32, i32, i32, i32, i32, i32, i32, i32, i32, i32 }
%struct.ApproxInfo = type { ptr, ptr, ptr, ptr, i32, double, i32, double }
%struct.NodeData = type { double, double, i32, i8, i8, i16, ptr, ptr }

; Function Attrs: nounwind uwtable
define internal ptr @gatherInfo(ptr noundef %0, ptr noundef %1, i32 noundef %2, i32 noundef %3) #0 {
  %5 = alloca ptr, align 8
  %6 = alloca ptr, align 8
  %7 = alloca ptr, align 8
  %8 = alloca i32, align 4
  %9 = alloca i32, align 4
  %10 = alloca ptr, align 8
  %11 = alloca ptr, align 8
  %12 = alloca i32, align 4
  store ptr %0, ptr %6, align 8, !tbaa !3
  store ptr %1, ptr %7, align 8, !tbaa !8
  store i32 %2, ptr %8, align 4, !tbaa !10
  store i32 %3, ptr %9, align 4, !tbaa !10
  call void @llvm.lifetime.start.p0(i64 8, ptr %10) #7
  call void @llvm.lifetime.start.p0(i64 8, ptr %11) #7
  %13 = load i32, ptr %8, align 4, !tbaa !10
  %14 = icmp eq i32 %13, 0
  br i1 %14, label %15, label %16

15:                                               ; preds = %4
  store i32 1023, ptr %8, align 4, !tbaa !10
  br label %16

16:                                               ; preds = %15, %4
  %17 = call noalias ptr @malloc(i64 noundef 64) #8
  store ptr %17, ptr %10, align 8, !tbaa !33
  %18 = load ptr, ptr %10, align 8, !tbaa !33
  %19 = icmp eq ptr %18, null
  br i1 %19, label %20, label %23

20:                                               ; preds = %16
  %21 = load ptr, ptr %6, align 8, !tbaa !3
  %22 = getelementptr inbounds nuw %struct.DdManager, ptr %21, i32 0, i32 86
  store i32 1, ptr %22, align 8, !tbaa !35
  store ptr null, ptr %5, align 8
  store i32 1, ptr %12, align 4
  br label %197

23:                                               ; preds = %16
  %24 = load i32, ptr %8, align 4, !tbaa !10
  %25 = sitofp i32 %24 to double
  %26 = call double @pow(double noundef 2.000000e+00, double noundef %25) #7, !tbaa !10
  %27 = load ptr, ptr %10, align 8, !tbaa !33
  %28 = getelementptr inbounds nuw %struct.ApproxInfo, ptr %27, i32 0, i32 5
  store double %26, ptr %28, align 8, !tbaa !49
  %29 = load ptr, ptr %6, align 8, !tbaa !3
  %30 = getelementptr inbounds nuw %struct.DdManager, ptr %29, i32 0, i32 1
  %31 = load ptr, ptr %30, align 8, !tbaa !50
  %32 = load ptr, ptr %10, align 8, !tbaa !33
  %33 = getelementptr inbounds nuw %struct.ApproxInfo, ptr %32, i32 0, i32 0
  store ptr %31, ptr %33, align 8, !tbaa !51
  %34 = load ptr, ptr %10, align 8, !tbaa !33
  %35 = getelementptr inbounds nuw %struct.ApproxInfo, ptr %34, i32 0, i32 0
  %36 = load ptr, ptr %35, align 8, !tbaa !51
  %37 = ptrtoint ptr %36 to i64
  %38 = xor i64 %37, 1
  %39 = inttoptr i64 %38 to ptr
  %40 = load ptr, ptr %10, align 8, !tbaa !33
  %41 = getelementptr inbounds nuw %struct.ApproxInfo, ptr %40, i32 0, i32 1
  store ptr %39, ptr %41, align 8, !tbaa !52
  %42 = load ptr, ptr %7, align 8, !tbaa !8
  %43 = call i32 @Cudd_DagSize(ptr noundef %42)
  %44 = load ptr, ptr %10, align 8, !tbaa !33
  %45 = getelementptr inbounds nuw %struct.ApproxInfo, ptr %44, i32 0, i32 6
  store i32 %43, ptr %45, align 8, !tbaa !41
  %46 = load ptr, ptr %10, align 8, !tbaa !33
  %47 = getelementptr inbounds nuw %struct.ApproxInfo, ptr %46, i32 0, i32 6
  %48 = load i32, ptr %47, align 8, !tbaa !41
  %49 = sext i32 %48 to i64
  %50 = mul i64 40, %49
  %51 = call noalias ptr @malloc(i64 noundef %50) #8
  %52 = load ptr, ptr %10, align 8, !tbaa !33
  %53 = getelementptr inbounds nuw %struct.ApproxInfo, ptr %52, i32 0, i32 2
  store ptr %51, ptr %53, align 8, !tbaa !36
  %54 = load ptr, ptr %10, align 8, !tbaa !33
  %55 = getelementptr inbounds nuw %struct.ApproxInfo, ptr %54, i32 0, i32 2
  %56 = load ptr, ptr %55, align 8, !tbaa !36
  %57 = icmp eq ptr %56, null
  br i1 %57, label %58, label %67

58:                                               ; preds = %23
  %59 = load ptr, ptr %6, align 8, !tbaa !3
  %60 = getelementptr inbounds nuw %struct.DdManager, ptr %59, i32 0, i32 86
  store i32 1, ptr %60, align 8, !tbaa !35
  %61 = load ptr, ptr %10, align 8, !tbaa !33
  %62 = icmp ne ptr %61, null
  br i1 %62, label %63, label %65

63:                                               ; preds = %58
  %64 = load ptr, ptr %10, align 8, !tbaa !33
  call void @free(ptr noundef %64) #7
  store ptr null, ptr %10, align 8, !tbaa !33
  br label %66

65:                                               ; preds = %58
  br label %66

66:                                               ; preds = %65, %63
  store ptr null, ptr %5, align 8
  store i32 1, ptr %12, align 4
  br label %197

67:                                               ; preds = %23
  %68 = load ptr, ptr %10, align 8, !tbaa !33
  %69 = getelementptr inbounds nuw %struct.ApproxInfo, ptr %68, i32 0, i32 2
  %70 = load ptr, ptr %69, align 8, !tbaa !36
  %71 = load ptr, ptr %10, align 8, !tbaa !33
  %72 = getelementptr inbounds nuw %struct.ApproxInfo, ptr %71, i32 0, i32 6
  %73 = load i32, ptr %72, align 8, !tbaa !41
  %74 = sext i32 %73 to i64
  %75 = mul i64 %74, 40
  call void @llvm.memset.p0.i64(ptr align 8 %70, i8 0, i64 %75, i1 false)
  %76 = call ptr @st__init_table(ptr noundef @st__ptrcmp, ptr noundef @st__ptrhash)
  %77 = load ptr, ptr %10, align 8, !tbaa !33
  %78 = getelementptr inbounds nuw %struct.ApproxInfo, ptr %77, i32 0, i32 3
  store ptr %76, ptr %78, align 8, !tbaa !40
  %79 = load ptr, ptr %10, align 8, !tbaa !33
  %80 = getelementptr inbounds nuw %struct.ApproxInfo, ptr %79, i32 0, i32 3
  %81 = load ptr, ptr %80, align 8, !tbaa !40
  %82 = icmp eq ptr %81, null
  br i1 %82, label %83, label %102

83:                                               ; preds = %67
  %84 = load ptr, ptr %10, align 8, !tbaa !33
  %85 = getelementptr inbounds nuw %struct.ApproxInfo, ptr %84, i32 0, i32 2
  %86 = load ptr, ptr %85, align 8, !tbaa !36
  %87 = icmp ne ptr %86, null
  br i1 %87, label %88, label %94

88:                                               ; preds = %83
  %89 = load ptr, ptr %10, align 8, !tbaa !33
  %90 = getelementptr inbounds nuw %struct.ApproxInfo, ptr %89, i32 0, i32 2
  %91 = load ptr, ptr %90, align 8, !tbaa !36
  call void @free(ptr noundef %91) #7
  %92 = load ptr, ptr %10, align 8, !tbaa !33
  %93 = getelementptr inbounds nuw %struct.ApproxInfo, ptr %92, i32 0, i32 2
  store ptr null, ptr %93, align 8, !tbaa !36
  br label %95

94:                                               ; preds = %83
  br label %95

95:                                               ; preds = %94, %88
  %96 = load ptr, ptr %10, align 8, !tbaa !33
  %97 = icmp ne ptr %96, null
  br i1 %97, label %98, label %100

98:                                               ; preds = %95
  %99 = load ptr, ptr %10, align 8, !tbaa !33
  call void @free(ptr noundef %99) #7
  store ptr null, ptr %10, align 8, !tbaa !33
  br label %101

100:                                              ; preds = %95
  br label %101

101:                                              ; preds = %100, %98
  store ptr null, ptr %5, align 8
  store i32 1, ptr %12, align 4
  br label %197

102:                                              ; preds = %67
  %103 = load ptr, ptr %10, align 8, !tbaa !33
  %104 = getelementptr inbounds nuw %struct.ApproxInfo, ptr %103, i32 0, i32 3
  %105 = load ptr, ptr %104, align 8, !tbaa !40
  %106 = load ptr, ptr %10, align 8, !tbaa !33
  %107 = getelementptr inbounds nuw %struct.ApproxInfo, ptr %106, i32 0, i32 0
  %108 = load ptr, ptr %107, align 8, !tbaa !51
  %109 = load ptr, ptr %10, align 8, !tbaa !33
  %110 = getelementptr inbounds nuw %struct.ApproxInfo, ptr %109, i32 0, i32 2
  %111 = load ptr, ptr %110, align 8, !tbaa !36
  %112 = call i32 @st__insert(ptr noundef %105, ptr noundef %108, ptr noundef %111)
  %113 = icmp eq i32 %112, -10000
  br i1 %113, label %114, label %136

114:                                              ; preds = %102
  %115 = load ptr, ptr %10, align 8, !tbaa !33
  %116 = getelementptr inbounds nuw %struct.ApproxInfo, ptr %115, i32 0, i32 2
  %117 = load ptr, ptr %116, align 8, !tbaa !36
  %118 = icmp ne ptr %117, null
  br i1 %118, label %119, label %125

119:                                              ; preds = %114
  %120 = load ptr, ptr %10, align 8, !tbaa !33
  %121 = getelementptr inbounds nuw %struct.ApproxInfo, ptr %120, i32 0, i32 2
  %122 = load ptr, ptr %121, align 8, !tbaa !36
  call void @free(ptr noundef %122) #7
  %123 = load ptr, ptr %10, align 8, !tbaa !33
  %124 = getelementptr inbounds nuw %struct.ApproxInfo, ptr %123, i32 0, i32 2
  store ptr null, ptr %124, align 8, !tbaa !36
  br label %126

125:                                              ; preds = %114
  br label %126

126:                                              ; preds = %125, %119
  %127 = load ptr, ptr %10, align 8, !tbaa !33
  %128 = icmp ne ptr %127, null
  br i1 %128, label %129, label %131

129:                                              ; preds = %126
  %130 = load ptr, ptr %10, align 8, !tbaa !33
  call void @free(ptr noundef %130) #7
  store ptr null, ptr %10, align 8, !tbaa !33
  br label %132

131:                                              ; preds = %126
  br label %132

132:                                              ; preds = %131, %129
  %133 = load ptr, ptr %10, align 8, !tbaa !33
  %134 = getelementptr inbounds nuw %struct.ApproxInfo, ptr %133, i32 0, i32 3
  %135 = load ptr, ptr %134, align 8, !tbaa !40
  call void @st__free_table(ptr noundef %135)
  store ptr null, ptr %5, align 8
  store i32 1, ptr %12, align 4
  br label %197

136:                                              ; preds = %102
  %137 = load ptr, ptr %10, align 8, !tbaa !33
  %138 = getelementptr inbounds nuw %struct.ApproxInfo, ptr %137, i32 0, i32 5
  %139 = load double, ptr %138, align 8, !tbaa !49
  %140 = load ptr, ptr %10, align 8, !tbaa !33
  %141 = getelementptr inbounds nuw %struct.ApproxInfo, ptr %140, i32 0, i32 2
  %142 = load ptr, ptr %141, align 8, !tbaa !36
  %143 = getelementptr inbounds %struct.NodeData, ptr %142, i64 0
  %144 = getelementptr inbounds nuw %struct.NodeData, ptr %143, i32 0, i32 0
  store double %139, ptr %144, align 8, !tbaa !53
  %145 = load ptr, ptr %10, align 8, !tbaa !33
  %146 = getelementptr inbounds nuw %struct.ApproxInfo, ptr %145, i32 0, i32 4
  store i32 1, ptr %146, align 8, !tbaa !56
  %147 = load ptr, ptr %7, align 8, !tbaa !8
  %148 = load ptr, ptr %10, align 8, !tbaa !33
  %149 = load i32, ptr %9, align 4, !tbaa !10
  %150 = call ptr @gatherInfoAux(ptr noundef %147, ptr noundef %148, i32 noundef %149)
  store ptr %150, ptr %11, align 8, !tbaa !57
  %151 = load ptr, ptr %11, align 8, !tbaa !57
  %152 = icmp eq ptr %151, null
  br i1 %152, label %153, label %175

153:                                              ; preds = %136
  %154 = load ptr, ptr %10, align 8, !tbaa !33
  %155 = getelementptr inbounds nuw %struct.ApproxInfo, ptr %154, i32 0, i32 2
  %156 = load ptr, ptr %155, align 8, !tbaa !36
  %157 = icmp ne ptr %156, null
  br i1 %157, label %158, label %164

158:                                              ; preds = %153
  %159 = load ptr, ptr %10, align 8, !tbaa !33
  %160 = getelementptr inbounds nuw %struct.ApproxInfo, ptr %159, i32 0, i32 2
  %161 = load ptr, ptr %160, align 8, !tbaa !36
  call void @free(ptr noundef %161) #7
  %162 = load ptr, ptr %10, align 8, !tbaa !33
  %163 = getelementptr inbounds nuw %struct.ApproxInfo, ptr %162, i32 0, i32 2
  store ptr null, ptr %163, align 8, !tbaa !36
  br label %165

164:                                              ; preds = %153
  br label %165

165:                                              ; preds = %164, %158
  %166 = load ptr, ptr %10, align 8, !tbaa !33
  %167 = getelementptr inbounds nuw %struct.ApproxInfo, ptr %166, i32 0, i32 3
  %168 = load ptr, ptr %167, align 8, !tbaa !40
  call void @st__free_table(ptr noundef %168)
  %169 = load ptr, ptr %10, align 8, !tbaa !33
  %170 = icmp ne ptr %169, null
  br i1 %170, label %171, label %173

171:                                              ; preds = %165
  %172 = load ptr, ptr %10, align 8, !tbaa !33
  call void @free(ptr noundef %172) #7
  store ptr null, ptr %10, align 8, !tbaa !33
  br label %174

173:                                              ; preds = %165
  br label %174

174:                                              ; preds = %173, %171
  store ptr null, ptr %5, align 8
  store i32 1, ptr %12, align 4
  br label %197

175:                                              ; preds = %136
  %176 = load ptr, ptr %7, align 8, !tbaa !8
  %177 = ptrtoint ptr %176 to i64
  %178 = and i64 %177, 1
  %179 = trunc i64 %178 to i32
  %180 = icmp ne i32 %179, 0
  br i1 %180, label %181, label %187

181:                                              ; preds = %175
  %182 = load ptr, ptr %11, align 8, !tbaa !57
  %183 = getelementptr inbounds nuw %struct.NodeData, ptr %182, i32 0, i32 1
  %184 = load double, ptr %183, align 8, !tbaa !58
  %185 = load ptr, ptr %10, align 8, !tbaa !33
  %186 = getelementptr inbounds nuw %struct.ApproxInfo, ptr %185, i32 0, i32 7
  store double %184, ptr %186, align 8, !tbaa !59
  br label %193

187:                                              ; preds = %175
  %188 = load ptr, ptr %11, align 8, !tbaa !57
  %189 = getelementptr inbounds nuw %struct.NodeData, ptr %188, i32 0, i32 0
  %190 = load double, ptr %189, align 8, !tbaa !53
  %191 = load ptr, ptr %10, align 8, !tbaa !33
  %192 = getelementptr inbounds nuw %struct.ApproxInfo, ptr %191, i32 0, i32 7
  store double %190, ptr %192, align 8, !tbaa !59
  br label %193

193:                                              ; preds = %187, %181
  %194 = load ptr, ptr %11, align 8, !tbaa !57
  %195 = getelementptr inbounds nuw %struct.NodeData, ptr %194, i32 0, i32 2
  store i32 1, ptr %195, align 8, !tbaa !60
  %196 = load ptr, ptr %10, align 8, !tbaa !33
  store ptr %196, ptr %5, align 8
  store i32 1, ptr %12, align 4
  br label %197

197:                                              ; preds = %193, %174, %132, %101, %66, %20
  call void @llvm.lifetime.end.p0(i64 8, ptr %11) #7
  call void @llvm.lifetime.end.p0(i64 8, ptr %10) #7
  %198 = load ptr, ptr %5, align 8
  ret ptr %198
}