; Function Attrs: nounwind uwtable
define internal fastcc noundef ptr @gatherInfo(ptr noundef captures(none) %0, ptr noundef nonnull %1, i32 noundef %2, i32 noundef %3) unnamed_addr #0 {
  %5 = tail call noalias dereferenceable_or_null(64) ptr @malloc(i64 noundef 64) #11
  %6 = icmp eq ptr %5, null
  br i1 %6, label %7, label %9

7:                                                ; preds = %4
  %8 = getelementptr inbounds nuw i8, ptr %0, i64 624
  store i32 1, ptr %8, align 8, !tbaa !28
  br label %50

9:                                                ; preds = %4
  %10 = icmp eq i32 %2, 0
  %spec.store.select = select i1 %10, i32 1023, i32 %2
  %ldexp = tail call double @ldexp(double 1.000000e+00, i32 %spec.store.select) #10
  %11 = getelementptr inbounds nuw i8, ptr %5, i64 40
  store double %ldexp, ptr %11, align 8, !tbaa !68
  %12 = getelementptr inbounds nuw i8, ptr %0, i64 40
  %13 = load ptr, ptr %12, align 8, !tbaa !69
  store ptr %13, ptr %5, align 8, !tbaa !70
  %14 = ptrtoint ptr %13 to i64
  %15 = xor i64 %14, 1
  %16 = inttoptr i64 %15 to ptr
  %17 = getelementptr inbounds nuw i8, ptr %5, i64 8
  store ptr %16, ptr %17, align 8, !tbaa !71
  %18 = tail call i32 @Cudd_DagSize(ptr noundef nonnull %1) #10
  %19 = getelementptr inbounds nuw i8, ptr %5, i64 48
  store i32 %18, ptr %19, align 8, !tbaa !30
  %20 = sext i32 %18 to i64
  %21 = mul nsw i64 %20, 40
  %calloc = tail call ptr @calloc(i64 1, i64 %21)
  %22 = getelementptr inbounds nuw i8, ptr %5, i64 16
  store ptr %calloc, ptr %22, align 8, !tbaa !57
  %23 = icmp eq ptr %calloc, null
  br i1 %23, label %24, label %26

24:                                               ; preds = %9
  %25 = getelementptr inbounds nuw i8, ptr %0, i64 624
  store i32 1, ptr %25, align 8, !tbaa !28
  tail call void @free(ptr noundef nonnull %5) #10
  br label %50

26:                                               ; preds = %9
  %27 = tail call ptr @st__init_table(ptr noundef nonnull @st__ptrcmp, ptr noundef nonnull @st__ptrhash) #10
  %28 = getelementptr inbounds nuw i8, ptr %5, i64 24
  store ptr %27, ptr %28, align 8, !tbaa !46
  %29 = icmp eq ptr %27, null
  br i1 %29, label %30, label %31

30:                                               ; preds = %26
  tail call void @free(ptr noundef nonnull %calloc) #10
  tail call void @free(ptr noundef nonnull %5) #10
  br label %50

31:                                               ; preds = %26
  %32 = tail call i32 @st__insert(ptr noundef nonnull %27, ptr noundef %13, ptr noundef nonnull %calloc) #10
  %33 = icmp eq i32 %32, -10000
  br i1 %33, label %34, label %36

34:                                               ; preds = %31
  tail call void @free(ptr noundef nonnull %calloc) #10
  tail call void @free(ptr noundef nonnull %5) #10
  %35 = load ptr, ptr inttoptr (i64 24 to ptr), align 8, !tbaa !46
  tail call void @st__free_table(ptr noundef %35) #10
  br label %50

36:                                               ; preds = %31
  store double %ldexp, ptr %calloc, align 8, !tbaa !52
  %37 = getelementptr inbounds nuw i8, ptr %5, i64 32
  store i32 1, ptr %37, align 8, !tbaa !72
  %38 = tail call fastcc ptr @gatherInfoAux(ptr noundef nonnull %1, ptr noundef %5, i32 noundef %3)
  %39 = icmp eq ptr %38, null
  br i1 %39, label %40, label %45

40:                                               ; preds = %36
  %41 = load ptr, ptr %22, align 8, !tbaa !57
  %.not63 = icmp eq ptr %41, null
  br i1 %.not63, label %43, label %42

42:                                               ; preds = %40
  tail call void @free(ptr noundef nonnull %41) #10
  store ptr null, ptr %22, align 8, !tbaa !57
  br label %43

43:                                               ; preds = %40, %42
  %44 = load ptr, ptr %28, align 8, !tbaa !46
  tail call void @st__free_table(ptr noundef %44) #10
  tail call void @free(ptr noundef nonnull %5) #10
  br label %50

45:                                               ; preds = %36
  %46 = ptrtoint ptr %1 to i64
  %47 = shl i64 %46, 3
  %spec.select.idx = and i64 %47, 8
  %spec.select = getelementptr inbounds nuw i8, ptr %38, i64 %spec.select.idx
  %.sink = load double, ptr %spec.select, align 8, !tbaa !62
  %48 = getelementptr inbounds nuw i8, ptr %5, i64 56
  store double %.sink, ptr %48, align 8, !tbaa !54
  %49 = getelementptr inbounds nuw i8, ptr %38, i64 16
  store i32 1, ptr %49, align 8, !tbaa !61
  br label %50

50:                                               ; preds = %45, %43, %34, %30, %24, %7
  %.0 = phi ptr [ null, %7 ], [ null, %24 ], [ null, %30 ], [ null, %34 ], [ null, %43 ], [ %5, %45 ]
  ret ptr %.0
}